target datalayout = "e-m:e-p270:32:32-p271:32:32-p272:64:64-i64:64-i128:128-f80:128-n8:16:32:64-S128"
target triple = "x86_64-pc-linux-gnu"

%struct.decNumber = type { i32, i32, i8, [1 x i16] }

@d2utable = dso_local constant [50 x i8] c"\00\01\01\01\02\02\02\03\03\03\04\04\04\05\05\05\06\06\06\07\07\07\08\08\08\09\09\09\0A\0A\0A\0B\0B\0B\0C\0C\0C\0D\0D\0D\0E\0E\0E\0F\0F\0F\10\10\10\11", align 16
@DECPOWERS = external constant [10 x i32], align 16

; Function Attrs: nounwind uwtable
define internal i32 @decGetDigits(ptr noundef %0, i32 noundef %1) #0 {
  %3 = alloca ptr, align 8
  %4 = alloca i32, align 4
  %5 = alloca ptr, align 8
  %6 = alloca i32, align 4
  store ptr %0, ptr %3, align 8, !tbaa !12
  store i32 %1, ptr %4, align 4, !tbaa !8
  call void @llvm.lifetime.start.p0(i64 8, ptr %5) #7
  %7 = load ptr, ptr %3, align 8, !tbaa !12
  %8 = load i32, ptr %4, align 4, !tbaa !8
  %9 = sub nsw i32 %8, 1
  %10 = sext i32 %9 to i64
  %11 = getelementptr inbounds i16, ptr %7, i64 %10
  store ptr %11, ptr %5, align 8, !tbaa !12
  call void @llvm.lifetime.start.p0(i64 4, ptr %6) #7
  %12 = load i32, ptr %4, align 4, !tbaa !8
  %13 = sub nsw i32 %12, 1
  %14 = mul nsw i32 %13, 3
  %15 = add nsw i32 %14, 1
  store i32 %15, ptr %6, align 4, !tbaa !8
  br label %16

16:                                               ; preds = %49, %2
  %17 = load ptr, ptr %5, align 8, !tbaa !12
  %18 = load ptr, ptr %3, align 8, !tbaa !12
  %19 = icmp uge ptr %17, %18
  br i1 %19, label %20, label %52

20:                                               ; preds = %16
  %21 = load ptr, ptr %5, align 8, !tbaa !12
  %22 = load i16, ptr %21, align 2, !tbaa !14
  %23 = zext i16 %22 to i32
  %24 = icmp eq i32 %23, 0
  br i1 %24, label %25, label %32

25:                                               ; preds = %20
  %26 = load i32, ptr %6, align 4, !tbaa !8
  %27 = icmp eq i32 %26, 1
  br i1 %27, label %28, label %29

28:                                               ; preds = %25
  br label %52

29:                                               ; preds = %25
  %30 = load i32, ptr %6, align 4, !tbaa !8
  %31 = sub nsw i32 %30, 3
  store i32 %31, ptr %6, align 4, !tbaa !8
  br label %49

32:                                               ; preds = %20
  %33 = load ptr, ptr %5, align 8, !tbaa !12
  %34 = load i16, ptr %33, align 2, !tbaa !14
  %35 = zext i16 %34 to i32
  %36 = icmp slt i32 %35, 10
  br i1 %36, label %37, label %38

37:                                               ; preds = %32
  br label %52

38:                                               ; preds = %32
  %39 = load i32, ptr %6, align 4, !tbaa !8
  %40 = add nsw i32 %39, 1
  store i32 %40, ptr %6, align 4, !tbaa !8
  %41 = load ptr, ptr %5, align 8, !tbaa !12
  %42 = load i16, ptr %41, align 2, !tbaa !14
  %43 = zext i16 %42 to i32
  %44 = icmp slt i32 %43, 100
  br i1 %44, label %45, label %46

45:                                               ; preds = %38
  br label %52

46:                                               ; preds = %38
  %47 = load i32, ptr %6, align 4, !tbaa !8
  %48 = add nsw i32 %47, 1
  store i32 %48, ptr %6, align 4, !tbaa !8
  br label %52

49:                                               ; preds = %29
  %50 = load ptr, ptr %5, align 8, !tbaa !12
  %51 = getelementptr inbounds i16, ptr %50, i32 -1
  store ptr %51, ptr %5, align 8, !tbaa !12
  br label %16, !llvm.loop !20

52:                                               ; preds = %46, %45, %37, %28, %16
  %53 = load i32, ptr %6, align 4, !tbaa !8
  call void @llvm.lifetime.end.p0(i64 4, ptr %6) #7
  call void @llvm.lifetime.end.p0(i64 8, ptr %5) #7
  ret i32 %53
}

; Function Attrs: nounwind uwtable
define internal ptr @decDecap(ptr noundef %0, i32 noundef %1) #0 {
  %3 = alloca ptr, align 8
  %4 = alloca ptr, align 8
  %5 = alloca i32, align 4
  %6 = alloca ptr, align 8
  %7 = alloca i32, align 4
  %8 = alloca i32, align 4
  store ptr %0, ptr %4, align 8, !tbaa !4
  store i32 %1, ptr %5, align 4, !tbaa !8
  call void @llvm.lifetime.start.p0(i64 8, ptr %6) #7
  call void @llvm.lifetime.start.p0(i64 4, ptr %7) #7
  %9 = load i32, ptr %5, align 4, !tbaa !8
  %10 = load ptr, ptr %4, align 8, !tbaa !4
  %11 = getelementptr inbounds nuw %struct.decNumber, ptr %10, i32 0, i32 0
  %12 = load i32, ptr %11, align 4, !tbaa !18
  %13 = icmp sge i32 %9, %12
  br i1 %13, label %14, label %21

14:                                               ; preds = %2
  %15 = load ptr, ptr %4, align 8, !tbaa !4
  %16 = getelementptr inbounds nuw %struct.decNumber, ptr %15, i32 0, i32 3
  %17 = getelementptr inbounds [1 x i16], ptr %16, i64 0, i64 0
  store i16 0, ptr %17, align 2, !tbaa !14
  %18 = load ptr, ptr %4, align 8, !tbaa !4
  %19 = getelementptr inbounds nuw %struct.decNumber, ptr %18, i32 0, i32 0
  store i32 1, ptr %19, align 4, !tbaa !18
  %20 = load ptr, ptr %4, align 8, !tbaa !4
  store ptr %20, ptr %3, align 8
  store i32 1, ptr %8, align 4
  br label %120

21:                                               ; preds = %2
  %22 = load ptr, ptr %4, align 8, !tbaa !4
  %23 = getelementptr inbounds nuw %struct.decNumber, ptr %22, i32 0, i32 3
  %24 = getelementptr inbounds [1 x i16], ptr %23, i64 0, i64 0
  %25 = load ptr, ptr %4, align 8, !tbaa !4
  %26 = getelementptr inbounds nuw %struct.decNumber, ptr %25, i32 0, i32 0
  %27 = load i32, ptr %26, align 4, !tbaa !18
  %28 = load i32, ptr %5, align 4, !tbaa !8
  %29 = sub nsw i32 %27, %28
  %30 = icmp sle i32 %29, 49
  br i1 %30, label %31, label %41

31:                                               ; preds = %21
  %32 = load ptr, ptr %4, align 8, !tbaa !4
  %33 = getelementptr inbounds nuw %struct.decNumber, ptr %32, i32 0, i32 0
  %34 = load i32, ptr %33, align 4, !tbaa !18
  %35 = load i32, ptr %5, align 4, !tbaa !8
  %36 = sub nsw i32 %34, %35
  %37 = sext i32 %36 to i64
  %38 = getelementptr inbounds [50 x i8], ptr @d2utable, i64 0, i64 %37
  %39 = load i8, ptr %38, align 1, !tbaa !25
  %40 = zext i8 %39 to i32
  br label %50

41:                                               ; preds = %21
  %42 = load ptr, ptr %4, align 8, !tbaa !4
  %43 = getelementptr inbounds nuw %struct.decNumber, ptr %42, i32 0, i32 0
  %44 = load i32, ptr %43, align 4, !tbaa !18
  %45 = load i32, ptr %5, align 4, !tbaa !8
  %46 = sub nsw i32 %44, %45
  %47 = add nsw i32 %46, 3
  %48 = sub nsw i32 %47, 1
  %49 = sdiv i32 %48, 3
  br label %50

50:                                               ; preds = %41, %31
  %51 = phi i32 [ %40, %31 ], [ %49, %41 ]
  %52 = sext i32 %51 to i64
  %53 = getelementptr inbounds i16, ptr %24, i64 %52
  %54 = getelementptr inbounds i16, ptr %53, i64 -1
  store ptr %54, ptr %6, align 8, !tbaa !12
  %55 = load ptr, ptr %4, align 8, !tbaa !4
  %56 = getelementptr inbounds nuw %struct.decNumber, ptr %55, i32 0, i32 0
  %57 = load i32, ptr %56, align 4, !tbaa !18
  %58 = load i32, ptr %5, align 4, !tbaa !8
  %59 = sub nsw i32 %57, %58
  %60 = load ptr, ptr %4, align 8, !tbaa !4
  %61 = getelementptr inbounds nuw %struct.decNumber, ptr %60, i32 0, i32 0
  %62 = load i32, ptr %61, align 4, !tbaa !18
  %63 = load i32, ptr %5, align 4, !tbaa !8
  %64 = sub nsw i32 %62, %63
  %65 = icmp sle i32 %64, 49
  br i1 %65, label %66, label %76

66:                                               ; preds = %50
  %67 = load ptr, ptr %4, align 8, !tbaa !4
  %68 = getelementptr inbounds nuw %struct.decNumber, ptr %67, i32 0, i32 0
  %69 = load i32, ptr %68, align 4, !tbaa !18
  %70 = load i32, ptr %5, align 4, !tbaa !8
  %71 = sub nsw i32 %69, %70
  %72 = sext i32 %71 to i64
  %73 = getelementptr inbounds [50 x i8], ptr @d2utable, i64 0, i64 %72
  %74 = load i8, ptr %73, align 1, !tbaa !25
  %75 = zext i8 %74 to i32
  br label %85

76:                                               ; preds = %50
  %77 = load ptr, ptr %4, align 8, !tbaa !4
  %78 = getelementptr inbounds nuw %struct.decNumber, ptr %77, i32 0, i32 0
  %79 = load i32, ptr %78, align 4, !tbaa !18
  %80 = load i32, ptr %5, align 4, !tbaa !8
  %81 = sub nsw i32 %79, %80
  %82 = add nsw i32 %81, 3
  %83 = sub nsw i32 %82, 1
  %84 = sdiv i32 %83, 3
  br label %85

85:                                               ; preds = %76, %66
  %86 = phi i32 [ %75, %66 ], [ %84, %76 ]
  %87 = sub nsw i32 %86, 1
  %88 = mul nsw i32 %87, 3
  %89 = sub nsw i32 %59, %88
  store i32 %89, ptr %7, align 4, !tbaa !8
  %90 = load i32, ptr %7, align 4, !tbaa !8
  %91 = icmp ne i32 %90, 3
  br i1 %91, label %92, label %102

92:                                               ; preds = %85
  %93 = load i32, ptr %7, align 4, !tbaa !8
  %94 = sext i32 %93 to i64
  %95 = getelementptr inbounds [10 x i32], ptr @DECPOWERS, i64 0, i64 %94
  %96 = load i32, ptr %95, align 4, !tbaa !8
  %97 = load ptr, ptr %6, align 8, !tbaa !12
  %98 = load i16, ptr %97, align 2, !tbaa !14
  %99 = zext i16 %98 to i32
  %100 = urem i32 %99, %96
  %101 = trunc i32 %100 to i16
  store i16 %101, ptr %97, align 2, !tbaa !14
  br label %102

102:                                              ; preds = %92, %85
  %103 = load ptr, ptr %4, align 8, !tbaa !4
  %104 = getelementptr inbounds nuw %struct.decNumber, ptr %103, i32 0, i32 3
  %105 = getelementptr inbounds [1 x i16], ptr %104, i64 0, i64 0
  %106 = load ptr, ptr %6, align 8, !tbaa !12
  %107 = load ptr, ptr %4, align 8, !tbaa !4
  %108 = getelementptr inbounds nuw %struct.decNumber, ptr %107, i32 0, i32 3
  %109 = getelementptr inbounds [1 x i16], ptr %108, i64 0, i64 0
  %110 = ptrtoint ptr %106 to i64
  %111 = ptrtoint ptr %109 to i64
  %112 = sub i64 %110, %111
  %113 = sdiv exact i64 %112, 2
  %114 = add nsw i64 %113, 1
  %115 = trunc i64 %114 to i32
  %116 = call i32 @decGetDigits(ptr noundef %105, i32 noundef %115)
  %117 = load ptr, ptr %4, align 8, !tbaa !4
  %118 = getelementptr inbounds nuw %struct.decNumber, ptr %117, i32 0, i32 0
  store i32 %116, ptr %118, align 4, !tbaa !18
  %119 = load ptr, ptr %4, align 8, !tbaa !4
  store ptr %119, ptr %3, align 8
  store i32 1, ptr %8, align 4
  br label %120

120:                                              ; preds = %102, %14
  call void @llvm.lifetime.end.p0(i64 4, ptr %7) #7
  call void @llvm.lifetime.end.p0(i64 8, ptr %6) #7
  %121 = load ptr, ptr %3, align 8
  ret ptr %121
}