; Function Attrs: nofree norecurse nosync nounwind memory(argmem: readwrite) uwtable
define internal fastcc noundef ptr @decDecap(ptr noundef returned %0, i32 noundef %1) unnamed_addr #0 {
  %3 = load i32, ptr %0, align 4, !tbaa !10
  %.not = icmp slt i32 %1, %3
  %.ptr36 = getelementptr inbounds nuw i8, ptr %0, i64 10
  br i1 %.not, label %5, label %4

4:                                                ; preds = %2
  store i16 0, ptr %.ptr36, align 2, !tbaa !11
  br label %decGetDigits.exit

5:                                                ; preds = %2
  %6 = sub nsw i32 %3, %1
  %7 = icmp slt i32 %6, 50
  br i1 %7, label %8, label %14

8:                                                ; preds = %5
  %9 = sext i32 %6 to i64
  %10 = getelementptr inbounds [50 x i8], ptr @d2utable, i64 0, i64 %9
  %11 = load i8, ptr %10, align 1, !tbaa !19
  %12 = zext i8 %11 to i64
  %13 = zext i8 %11 to i32
  br label %18

14:                                               ; preds = %5
  %15 = add nuw nsw i32 %6, 2
  %16 = udiv i32 %15, 3
  %17 = zext nneg i32 %16 to i64
  br label %18

18:                                               ; preds = %14, %8
  %.pn35 = phi i64 [ %12, %8 ], [ %17, %14 ]
  %19 = phi i32 [ %13, %8 ], [ %16, %14 ]
  %.pn = getelementptr inbounds nuw i16, ptr %.ptr36, i64 %.pn35
  %20 = getelementptr inbounds i8, ptr %.pn, i64 -2
  %.neg = mul nsw i32 %19, -3
  %.neg33 = add i32 %6, 3
  %21 = add i32 %.neg33, %.neg
  %.not34 = icmp eq i32 %21, 3
  br i1 %.not34, label %30, label %22

22:                                               ; preds = %18
  %23 = sext i32 %21 to i64
  %24 = getelementptr inbounds [10 x i32], ptr @DECPOWERS, i64 0, i64 %23
  %25 = load i32, ptr %24, align 4, !tbaa !16
  %26 = load i16, ptr %20, align 2, !tbaa !11
  %27 = zext i16 %26 to i32
  %28 = urem i32 %27, %25
  %29 = trunc nuw i32 %28 to i16
  store i16 %29, ptr %20, align 2, !tbaa !11
  br label %30

30:                                               ; preds = %22, %18
  %31 = ptrtoint ptr %20 to i64
  %32 = ptrtoint ptr %.ptr36 to i64
  %33 = sub i64 %31, %32
  %34 = lshr exact i64 %33, 1
  %35 = trunc i64 %34 to i32
  %36 = mul i32 %35, 3
  %37 = add nsw i32 %36, 1
  %.not16.i = icmp ugt i32 %35, 2147483646
  br i1 %.not16.i, label %decGetDigits.exit, label %.lr.ph.preheader.i

.lr.ph.preheader.i:                               ; preds = %30
  %.idx = and i64 %33, 4294967294
  %.add = add nuw nsw i64 %.idx, 10
  %38 = add i32 %36, -2
  %39 = trunc i64 %34 to i32
  %.neg42 = mul i32 %39, -3
  %40 = add i32 %.neg42, %38
  br label %.lr.ph.i

.lr.ph.i:                                         ; preds = %45, %.lr.ph.preheader.i
  %.018.i = phi i32 [ %46, %45 ], [ %37, %.lr.ph.preheader.i ]
  %.01317.i.idx = phi i64 [ %.01317.i.add, %45 ], [ %.add, %.lr.ph.preheader.i ]
  %.01317.i.ptr = getelementptr inbounds i8, ptr %0, i64 %.01317.i.idx
  %41 = load i16, ptr %.01317.i.ptr, align 2, !tbaa !11
  %42 = icmp eq i16 %41, 0
  br i1 %42, label %43, label %47

43:                                               ; preds = %.lr.ph.i
  %44 = icmp eq i32 %.018.i, 1
  br i1 %44, label %decGetDigits.exit, label %45

45:                                               ; preds = %43
  %46 = add nsw i32 %.018.i, -3
  %.01317.i.add = add nsw i64 %.01317.i.idx, -2
  %.not.i = icmp slt i64 %.01317.i.idx, 12
  br i1 %.not.i, label %decGetDigits.exit, label %.lr.ph.i, !llvm.loop !15

47:                                               ; preds = %.lr.ph.i
  %48 = icmp ult i16 %41, 10
  br i1 %48, label %decGetDigits.exit, label %49

49:                                               ; preds = %47
  %50 = icmp ult i16 %41, 100
  %spec.select.v.i = select i1 %50, i32 1, i32 2
  %spec.select.i = add nsw i32 %spec.select.v.i, %.018.i
  br label %decGetDigits.exit

decGetDigits.exit:                                ; preds = %45, %43, %49, %47, %30, %4
  %storemerge = phi i32 [ 1, %4 ], [ %.018.i, %47 ], [ %spec.select.i, %49 ], [ %37, %30 ], [ 1, %43 ], [ %40, %45 ]
  store i32 %storemerge, ptr %0, align 4, !tbaa !10
  ret ptr %0
}